target datalayout = "e-m:e-p270:32:32-p271:32:32-p272:64:64-i64:64-i128:128-f80:128-n8:16:32:64-S128"
target triple = "x86_64-unknown-linux-gnu"

%"class.std::__cxx11::basic_string" = type { %"struct.std::__cxx11::basic_string<char>::_Alloc_hider", i64, %union.anon }
%"struct.std::__cxx11::basic_string<char>::_Alloc_hider" = type { ptr }
%union.anon = type { i64, [8 x i8] }
%class.event_handler = type <{ ptr, i32, [4 x i8] }>

@.str = private unnamed_addr constant [1 x i8] zeroinitializer, align 1
@.str.1 = private unnamed_addr constant [23 x i8] c"unclassified exception\00", align 1
@.str.2 = private unnamed_addr constant [26 x i8] c"interrupted from keyboard\00", align 1
@.str.3 = private unnamed_addr constant [8 x i8] c"timeout\00", align 1
@.str.4 = private unnamed_addr constant [29 x i8] c"max. resource limit exceeded\00", align 1
@.str.5 = private unnamed_addr constant [12 x i8] c"interrupted\00", align 1

; Function Attrs: mustprogress nounwind uwtable
define linkonce_odr noundef zeroext i1 @_ZSteqIcSt11char_traitsIcESaIcEEbRKNSt7__cxx1112basic_stringIT_T0_T1_EEPKS5_(ptr noundef nonnull align 8 dereferenceable(32) %__lhs, ptr noundef %__rhs) #5 comdat {
entry:
  %__lhs.addr = alloca ptr, align 8
  %__rhs.addr = alloca ptr, align 8
  store ptr %__lhs, ptr %__lhs.addr, align 8
  store ptr %__rhs, ptr %__rhs.addr, align 8
  %0 = load ptr, ptr %__lhs.addr, align 8
  %1 = load ptr, ptr %__rhs.addr, align 8
  %call = call noundef i32 @_ZNKSt7__cxx1112basic_stringIcSt11char_traitsIcESaIcEE7compareEPKc(ptr noundef nonnull align 8 dereferenceable(32) %0, ptr noundef %1) #3
  %cmp = icmp eq i32 %call, 0
  ret i1 %cmp
}

; Function Attrs: mustprogress nounwind uwtable
define linkonce_odr hidden noundef i32 @_ZNK13event_handler9caller_idEv(ptr noundef nonnull align 8 dereferenceable(12) %this) #5 comdat align 2 {
entry:
  %this.addr = alloca ptr, align 8
  store ptr %this, ptr %this.addr, align 8
  %this1 = load ptr, ptr %this.addr, align 8
  %m_caller_id = getelementptr inbounds %class.event_handler, ptr %this1, i32 0, i32 1
  %0 = load i32, ptr %m_caller_id, align 8
  ret i32 %0
}

; Function Attrs: mustprogress uwtable
define hidden void @_ZN16check_sat_result18set_reason_unknownER13event_handler(ptr noundef nonnull align 8 dereferenceable(72) %this, ptr noundef nonnull align 8 dereferenceable(12) %eh) #4 align 2 personality ptr @__gxx_personality_v0 {
entry:
  %this.addr = alloca ptr, align 8
  %eh.addr = alloca ptr, align 8
  %ref.tmp = alloca %"class.std::__cxx11::basic_string", align 8
  %exn.slot = alloca ptr, align 8
  %ehselector.slot = alloca i32, align 4
  store ptr %this, ptr %this.addr, align 8
  store ptr %eh, ptr %eh.addr, align 8
  %this1 = load ptr, ptr %this.addr, align 8
  %0 = load ptr, ptr %eh.addr, align 8
  %call = call noundef i32 @_ZNK13event_handler9caller_idEv(ptr noundef nonnull align 8 dereferenceable(12) %0)
  switch i32 %call, label %sw.epilog [
    i32 0, label %sw.bb
    i32 1, label %sw.bb5
    i32 2, label %sw.bb8
    i32 3, label %sw.bb11
    i32 4, label %sw.bb14
  ]

sw.bb:                                            ; preds = %entry
  %vtable = load ptr, ptr %this1, align 8
  %vfn = getelementptr inbounds ptr, ptr %vtable, i64 6
  %1 = load ptr, ptr %vfn, align 8
  call void %1(ptr sret(%"class.std::__cxx11::basic_string") align 8 %ref.tmp, ptr noundef nonnull align 8 dereferenceable(72) %this1)
  %call2 = invoke noundef zeroext i1 @_ZSteqIcSt11char_traitsIcESaIcEEbRKNSt7__cxx1112basic_stringIT_T0_T1_EEPKS5_(ptr noundef nonnull align 8 dereferenceable(32) %ref.tmp, ptr noundef @.str)
          to label %invoke.cont unwind label %lpad

invoke.cont:                                      ; preds = %sw.bb
  call void @_ZNSt7__cxx1112basic_stringIcSt11char_traitsIcESaIcEED1Ev(ptr noundef nonnull align 8 dereferenceable(32) %ref.tmp) #3
  br i1 %call2, label %if.then, label %if.end

if.then:                                          ; preds = %invoke.cont
  %vtable3 = load ptr, ptr %this1, align 8
  %vfn4 = getelementptr inbounds ptr, ptr %vtable3, i64 7
  %2 = load ptr, ptr %vfn4, align 8
  call void %2(ptr noundef nonnull align 8 dereferenceable(72) %this1, ptr noundef @.str.1)
  br label %if.end

lpad:                                             ; preds = %sw.bb
  %3 = landingpad { ptr, i32 }
          cleanup
  %4 = extractvalue { ptr, i32 } %3, 0
  store ptr %4, ptr %exn.slot, align 8
  %5 = extractvalue { ptr, i32 } %3, 1
  store i32 %5, ptr %ehselector.slot, align 4
  call void @_ZNSt7__cxx1112basic_stringIcSt11char_traitsIcESaIcEED1Ev(ptr noundef nonnull align 8 dereferenceable(32) %ref.tmp) #3
  br label %eh.resume

if.end:                                           ; preds = %if.then, %invoke.cont
  br label %sw.epilog

sw.bb5:                                           ; preds = %entry
  %vtable6 = load ptr, ptr %this1, align 8
  %vfn7 = getelementptr inbounds ptr, ptr %vtable6, i64 7
  %6 = load ptr, ptr %vfn7, align 8
  call void %6(ptr noundef nonnull align 8 dereferenceable(72) %this1, ptr noundef @.str.2)
  br label %sw.epilog

sw.bb8:                                           ; preds = %entry
  %vtable9 = load ptr, ptr %this1, align 8
  %vfn10 = getelementptr inbounds ptr, ptr %vtable9, i64 7
  %7 = load ptr, ptr %vfn10, align 8
  call void %7(ptr noundef nonnull align 8 dereferenceable(72) %this1, ptr noundef @.str.3)
  br label %sw.epilog

sw.bb11:                                          ; preds = %entry
  %vtable12 = load ptr, ptr %this1, align 8
  %vfn13 = getelementptr inbounds ptr, ptr %vtable12, i64 7
  %8 = load ptr, ptr %vfn13, align 8
  call void %8(ptr noundef nonnull align 8 dereferenceable(72) %this1, ptr noundef @.str.4)
  br label %sw.epilog

sw.bb14:                                          ; preds = %entry
  %vtable15 = load ptr, ptr %this1, align 8
  %vfn16 = getelementptr inbounds ptr, ptr %vtable15, i64 7
  %9 = load ptr, ptr %vfn16, align 8
  call void %9(ptr noundef nonnull align 8 dereferenceable(72) %this1, ptr noundef @.str.5)
  br label %sw.epilog

sw.epilog:                                        ; preds = %sw.bb14, %sw.bb11, %sw.bb8, %sw.bb5, %if.end, %entry
  ret void

eh.resume:                                        ; preds = %lpad
  %exn = load ptr, ptr %exn.slot, align 8
  %sel = load i32, ptr %ehselector.slot, align 4
  %lpad.val = insertvalue { ptr, i32 } poison, ptr %exn, 0
  %lpad.val17 = insertvalue { ptr, i32 } %lpad.val, i32 %sel, 1
  resume { ptr, i32 } %lpad.val17
}