; Function Attrs: mustprogress uwtable
define hidden void @_ZN16check_sat_result18set_reason_unknownER13event_handler(ptr noundef nonnull align 8 dereferenceable(72) %this, ptr nocapture noundef nonnull readonly align 8 dereferenceable(12) %eh) local_unnamed_addr #3 align 2 personality ptr @__gxx_personality_v0 {
entry:
  %ref.tmp = alloca %"class.std::__cxx11::basic_string", align 8
  %m_caller_id.i = getelementptr inbounds i8, ptr %eh, i64 8
  %0 = load i32, ptr %m_caller_id.i, align 8
  switch i32 %0, label %sw.epilog [
    i32 0, label %sw.bb
    i32 1, label %sw.bb5
    i32 2, label %sw.bb8
    i32 3, label %sw.bb11
    i32 4, label %sw.bb14
  ]

sw.bb:                                            ; preds = %entry
  %vtable = load ptr, ptr %this, align 8
  %vfn = getelementptr inbounds i8, ptr %vtable, i64 48
  %1 = load ptr, ptr %vfn, align 8
  call void %1(ptr nonnull sret(%"class.std::__cxx11::basic_string") align 8 %ref.tmp, ptr noundef nonnull align 8 dereferenceable(72) %this)
  %call.i = call noundef i32 @_ZNKSt7__cxx1112basic_stringIcSt11char_traitsIcESaIcEE7compareEPKc(ptr noundef nonnull align 8 dereferenceable(32) %ref.tmp, ptr noundef nonnull @.str) #14
  %cmp.i = icmp eq i32 %call.i, 0
  call void @_ZNSt7__cxx1112basic_stringIcSt11char_traitsIcESaIcEED1Ev(ptr noundef nonnull align 8 dereferenceable(32) %ref.tmp) #14
  br i1 %cmp.i, label %if.then, label %sw.epilog

if.then:                                          ; preds = %sw.bb
  %vtable3 = load ptr, ptr %this, align 8
  %vfn4 = getelementptr inbounds i8, ptr %vtable3, i64 56
  %2 = load ptr, ptr %vfn4, align 8
  call void %2(ptr noundef nonnull align 8 dereferenceable(72) %this, ptr noundef nonnull @.str.1)
  br label %sw.epilog

sw.bb5:                                           ; preds = %entry
  %vtable6 = load ptr, ptr %this, align 8
  %vfn7 = getelementptr inbounds i8, ptr %vtable6, i64 56
  %3 = load ptr, ptr %vfn7, align 8
  tail call void %3(ptr noundef nonnull align 8 dereferenceable(72) %this, ptr noundef nonnull @.str.2)
  br label %sw.epilog

sw.bb8:                                           ; preds = %entry
  %vtable9 = load ptr, ptr %this, align 8
  %vfn10 = getelementptr inbounds i8, ptr %vtable9, i64 56
  %4 = load ptr, ptr %vfn10, align 8
  tail call void %4(ptr noundef nonnull align 8 dereferenceable(72) %this, ptr noundef nonnull @.str.3)
  br label %sw.epilog

sw.bb11:                                          ; preds = %entry
  %vtable12 = load ptr, ptr %this, align 8
  %vfn13 = getelementptr inbounds i8, ptr %vtable12, i64 56
  %5 = load ptr, ptr %vfn13, align 8
  tail call void %5(ptr noundef nonnull align 8 dereferenceable(72) %this, ptr noundef nonnull @.str.4)
  br label %sw.epilog

sw.bb14:                                          ; preds = %entry
  %vtable15 = load ptr, ptr %this, align 8
  %vfn16 = getelementptr inbounds i8, ptr %vtable15, i64 56
  %6 = load ptr, ptr %vfn16, align 8
  tail call void %6(ptr noundef nonnull align 8 dereferenceable(72) %this, ptr noundef nonnull @.str.5)
  br label %sw.epilog

sw.epilog:                                        ; preds = %sw.bb, %if.then, %sw.bb14, %sw.bb11, %sw.bb8, %sw.bb5, %entry
  ret void
}